target datalayout = "e-m:e-p270:32:32-p271:32:32-p272:64:64-i64:64-i128:128-f80:128-n8:16:32:64-S128"
target triple = "x86_64-pc-linux-gnu"

%struct._asn1_ctx_t = type { i32, i32, i8, ptr, ptr, ptr, ptr, ptr, %struct.anon, %struct.anon.2, %struct.anon.3, ptr }
%struct.anon = type { i32, i8, i8, i8, ptr, ptr, i32, i32, ptr, ptr, ptr, %union.anon }
%union.anon = type { %struct.anon.0 }
%struct.anon.0 = type { ptr }
%struct.anon.2 = type { ptr, ptr, ptr }
%struct.anon.3 = type { i32, i8, ptr, i32, i32, ptr, ptr, ptr, %union.anon.4 }
%union.anon.4 = type { %struct.anon.5 }
%struct.anon.5 = type { ptr }
%struct._packet_info = type { ptr, ptr, i32, i32, %struct.nstime_t, %struct.nstime_t, %struct.nstime_t, i8, ptr, ptr, ptr, ptr, %struct._address, %struct._address, %struct._address, %struct._address, %struct._address, %struct._address, i32, ptr, i8, [3 x i8], %struct.anon.7, i32, i32, i32, i32, ptr, i8, ptr, ptr, i16, i16, i32, i32, i16, i32, i32, ptr, ptr, ptr, i8, i8, i16, i16, i16, i32, i16, i16, ptr, ptr, ptr, ptr, ptr, i32, i32 }
%struct.nstime_t = type { i64, i32 }
%struct._address = type { i32, i32, ptr, ptr }
%struct.anon.7 = type { i8, [3 x i8] }
%struct.ulp_private_data_t = type { i8, i8 }

; Function Attrs: null_pointer_is_valid sspstrong uwtable
define internal ptr @ulp_get_private_data(ptr noundef %0) #0 {
  %2 = alloca ptr, align 8
  store ptr %0, ptr %2, align 8
  %3 = load ptr, ptr %2, align 8
  %4 = getelementptr inbounds nuw %struct._asn1_ctx_t, ptr %3, i32 0, i32 7
  %5 = load ptr, ptr %4, align 8
  %6 = icmp eq ptr %5, null
  br i1 %6, label %7, label %16

7:                                                ; preds = %1
  %8 = load ptr, ptr %2, align 8
  %9 = getelementptr inbounds nuw %struct._asn1_ctx_t, ptr %8, i32 0, i32 3
  %10 = load ptr, ptr %9, align 8
  %11 = getelementptr inbounds nuw %struct._packet_info, ptr %10, i32 0, i32 51
  %12 = load ptr, ptr %11, align 8
  %13 = call noalias ptr @wmem_alloc0(ptr noundef %12, i64 noundef 2) #7
  %14 = load ptr, ptr %2, align 8
  %15 = getelementptr inbounds nuw %struct._asn1_ctx_t, ptr %14, i32 0, i32 7
  store ptr %13, ptr %15, align 8
  br label %16

16:                                               ; preds = %7, %1
  %17 = load ptr, ptr %2, align 8
  %18 = getelementptr inbounds nuw %struct._asn1_ctx_t, ptr %17, i32 0, i32 7
  %19 = load ptr, ptr %18, align 8
  ret ptr %19
}

; Function Attrs: null_pointer_is_valid sspstrong uwtable
define internal i32 @dissect_ulp_EncodingType(ptr noundef %0, i32 noundef %1, ptr noundef %2, ptr noundef %3, i32 noundef %4) #0 {
  %6 = alloca ptr, align 8
  %7 = alloca i32, align 4
  %8 = alloca ptr, align 8
  %9 = alloca ptr, align 8
  %10 = alloca i32, align 4
  %11 = alloca i32, align 4
  %12 = alloca ptr, align 8
  store ptr %0, ptr %6, align 8
  store i32 %1, ptr %7, align 4
  store ptr %2, ptr %8, align 8
  store ptr %3, ptr %9, align 8
  store i32 %4, ptr %10, align 4
  call void @llvm.lifetime.start.p0(i64 4, ptr %11) #6
  call void @llvm.lifetime.start.p0(i64 8, ptr %12) #6
  %13 = load ptr, ptr %8, align 8
  %14 = call ptr @ulp_get_private_data(ptr noundef %13)
  store ptr %14, ptr %12, align 8
  %15 = load ptr, ptr %6, align 8
  %16 = load i32, ptr %7, align 4
  %17 = load ptr, ptr %8, align 8
  %18 = load ptr, ptr %9, align 8
  %19 = load i32, ptr %10, align 4
  %20 = call i32 @dissect_per_enumerated(ptr noundef %15, i32 noundef %16, ptr noundef %17, ptr noundef %18, i32 noundef %19, i32 noundef 3, ptr noundef %11, i1 noundef zeroext true, i32 noundef 0, ptr noundef null)
  store i32 %20, ptr %7, align 4
  %21 = load i32, ptr %11, align 4
  %22 = trunc i32 %21 to i8
  %23 = load ptr, ptr %12, align 8
  %24 = getelementptr inbounds nuw %struct.ulp_private_data_t, ptr %23, i32 0, i32 0
  store i8 %22, ptr %24, align 1
  %25 = load i32, ptr %7, align 4
  call void @llvm.lifetime.end.p0(i64 8, ptr %12) #6
  call void @llvm.lifetime.end.p0(i64 4, ptr %11) #6
  ret i32 %25
}